target datalayout = "e-m:e-p270:32:32-p271:32:32-p272:64:64-i64:64-i128:128-f80:128-n8:16:32:64-S128"
target triple = "x86_64-pc-linux-gnu"

%struct.gmx_output_env_t = type <{ ptr, i32, i8, [3 x i8], i32, i32, i32, [4 x i8] }>

@_ZTISt9exception = external constant ptr

; Function Attrs: mustprogress nounwind uwtable
define linkonce_odr void @_ZN16gmx_output_env_tC2ERKN3gmx15IProgramContextE(ptr noundef nonnull align 8 dereferenceable(28) %0, ptr noundef nonnull align 8 dereferenceable(8) %1) unnamed_addr #3 comdat align 2 {
  %3 = alloca ptr, align 8
  %4 = alloca ptr, align 8
  store ptr %0, ptr %3, align 8, !tbaa !20
  store ptr %1, ptr %4, align 8, !tbaa !10
  %5 = load ptr, ptr %3, align 8
  %6 = getelementptr inbounds nuw %struct.gmx_output_env_t, ptr %5, i32 0, i32 0
  %7 = load ptr, ptr %4, align 8, !tbaa !10
  store ptr %7, ptr %6, align 8, !tbaa !10
  %8 = getelementptr inbounds nuw %struct.gmx_output_env_t, ptr %5, i32 0, i32 1
  store i32 1, ptr %8, align 8, !tbaa !22
  %9 = getelementptr inbounds nuw %struct.gmx_output_env_t, ptr %5, i32 0, i32 2
  store i8 0, ptr %9, align 4, !tbaa !26
  %10 = getelementptr inbounds nuw %struct.gmx_output_env_t, ptr %5, i32 0, i32 4
  store i32 2, ptr %10, align 8, !tbaa !27
  %11 = getelementptr inbounds nuw %struct.gmx_output_env_t, ptr %5, i32 0, i32 5
  store i32 0, ptr %11, align 4, !tbaa !28
  %12 = getelementptr inbounds nuw %struct.gmx_output_env_t, ptr %5, i32 0, i32 6
  store i32 0, ptr %12, align 8, !tbaa !31
  ret void
}

; Function Attrs: mustprogress uwtable
define void @_Z23output_env_init_defaultPP16gmx_output_env_t(ptr noundef %0) #0 personality ptr @__gxx_personality_v0 {
  %2 = alloca ptr, align 8
  %3 = alloca ptr, align 8
  %4 = alloca ptr, align 8
  %5 = alloca i32, align 4
  %6 = alloca ptr, align 8
  store ptr %0, ptr %2, align 8, !tbaa !4
  call void @llvm.lifetime.start.p0(i64 8, ptr %3) #14
  %7 = invoke noalias noundef nonnull ptr @_Znwm(i64 noundef 32) #15
          to label %8 unwind label %14

8:                                                ; preds = %1
  %9 = invoke noundef nonnull align 8 dereferenceable(8) ptr @_ZN3gmx17getProgramContextEv()
          to label %10 unwind label %18

10:                                               ; preds = %8
  invoke void @_ZN16gmx_output_env_tC2ERKN3gmx15IProgramContextE(ptr noundef nonnull align 8 dereferenceable(28) %7, ptr noundef nonnull align 8 dereferenceable(8) %9)
          to label %11 unwind label %18

11:                                               ; preds = %10
  store ptr %7, ptr %3, align 8, !tbaa !20
  %12 = load ptr, ptr %3, align 8, !tbaa !20
  %13 = load ptr, ptr %2, align 8, !tbaa !4
  store ptr %12, ptr %13, align 8, !tbaa !20
  call void @llvm.lifetime.end.p0(i64 8, ptr %3) #14
  br label %37

14:                                               ; preds = %1
  %15 = landingpad { ptr, i32 }
          cleanup
          catch ptr @_ZTISt9exception
  %16 = extractvalue { ptr, i32 } %15, 0
  store ptr %16, ptr %4, align 8
  %17 = extractvalue { ptr, i32 } %15, 1
  store i32 %17, ptr %5, align 4
  br label %22

18:                                               ; preds = %10, %8
  %19 = landingpad { ptr, i32 }
          cleanup
          catch ptr @_ZTISt9exception
  %20 = extractvalue { ptr, i32 } %19, 0
  store ptr %20, ptr %4, align 8
  %21 = extractvalue { ptr, i32 } %19, 1
  store i32 %21, ptr %5, align 4
  call void @_ZdlPvm(ptr noundef %7, i64 noundef 32) #16
  br label %22

22:                                               ; preds = %18, %14
  call void @llvm.lifetime.end.p0(i64 8, ptr %3) #14
  br label %23

23:                                               ; preds = %22
  %24 = load i32, ptr %5, align 4
  %25 = call i32 @llvm.eh.typeid.for.p0(ptr @_ZTISt9exception) #14
  %26 = icmp eq i32 %24, %25
  br i1 %26, label %27, label %38

27:                                               ; preds = %23
  call void @llvm.lifetime.start.p0(i64 8, ptr %6) #14
  %28 = load ptr, ptr %4, align 8
  %29 = call ptr @__cxa_begin_catch(ptr %28) #14
  store ptr %29, ptr %6, align 8
  %30 = load ptr, ptr %6, align 8, !tbaa !32
  invoke void @_ZN3gmx28processExceptionAsFatalErrorERKSt9exception(ptr noundef nonnull align 8 dereferenceable(8) %30) #17
          to label %31 unwind label %32

31:                                               ; preds = %27
  unreachable

32:                                               ; preds = %27
  %33 = landingpad { ptr, i32 }
          cleanup
  %34 = extractvalue { ptr, i32 } %33, 0
  store ptr %34, ptr %4, align 8
  %35 = extractvalue { ptr, i32 } %33, 1
  store i32 %35, ptr %5, align 4
  invoke void @__cxa_end_catch()
          to label %36 unwind label %43

36:                                               ; preds = %32
  call void @llvm.lifetime.end.p0(i64 8, ptr %6) #14
  br label %38

37:                                               ; preds = %11
  ret void

38:                                               ; preds = %36, %23
  %39 = load ptr, ptr %4, align 8
  %40 = load i32, ptr %5, align 4
  %41 = insertvalue { ptr, i32 } poison, ptr %39, 0
  %42 = insertvalue { ptr, i32 } %41, i32 %40, 1
  resume { ptr, i32 } %42

43:                                               ; preds = %32
  %44 = landingpad { ptr, i32 }
          catch ptr null
  %45 = extractvalue { ptr, i32 } %44, 0
  call void @__clang_call_terminate(ptr %45) #18
  unreachable
}