; Function Attrs: mustprogress uwtable
define void @_Z23output_env_init_defaultPP16gmx_output_env_t(ptr noundef writeonly captures(none) %0) local_unnamed_addr #0 personality ptr @__gxx_personality_v0 {
  %2 = invoke noalias noundef nonnull dereferenceable(32) ptr @_Znwm(i64 noundef 32) #16
          to label %3 unwind label %11

3:                                                ; preds = %1
  %4 = invoke noundef nonnull align 8 dereferenceable(8) ptr @_ZN3gmx17getProgramContextEv()
          to label %5 unwind label %13

5:                                                ; preds = %3
  store ptr %4, ptr %2, align 8, !tbaa !4
  %6 = getelementptr inbounds nuw i8, ptr %2, i64 8
  store i32 1, ptr %6, align 8, !tbaa !17
  %7 = getelementptr inbounds nuw i8, ptr %2, i64 12
  store i8 0, ptr %7, align 4, !tbaa !18
  %8 = getelementptr inbounds nuw i8, ptr %2, i64 16
  store i32 2, ptr %8, align 8, !tbaa !19
  %9 = getelementptr inbounds nuw i8, ptr %2, i64 20
  store i32 0, ptr %9, align 4, !tbaa !20
  %10 = getelementptr inbounds nuw i8, ptr %2, i64 24
  store i32 0, ptr %10, align 8, !tbaa !9
  store ptr %2, ptr %0, align 8, !tbaa !15
  ret void

11:                                               ; preds = %1
  %12 = landingpad { ptr, i32 }
          cleanup
          catch ptr @_ZTISt9exception
  br label %15

13:                                               ; preds = %3
  %14 = landingpad { ptr, i32 }
          cleanup
          catch ptr @_ZTISt9exception
  tail call void @_ZdlPvm(ptr noundef nonnull %2, i64 noundef 32) #20
  br label %15

15:                                               ; preds = %13, %11
  %.pn = phi { ptr, i32 } [ %14, %13 ], [ %12, %11 ]
  %.06 = extractvalue { ptr, i32 } %.pn, 1
  %16 = tail call i32 @llvm.eh.typeid.for.p0(ptr nonnull @_ZTISt9exception) #17
  %17 = icmp eq i32 %.06, %16
  br i1 %17, label %18, label %23

18:                                               ; preds = %15
  %.0 = extractvalue { ptr, i32 } %.pn, 0
  %19 = tail call ptr @__cxa_begin_catch(ptr %.0) #17
  invoke void @_ZN3gmx28processExceptionAsFatalErrorERKSt9exception(ptr noundef nonnull align 8 dereferenceable(8) %19) #18
          to label %20 unwind label %21

20:                                               ; preds = %18
  unreachable

21:                                               ; preds = %18
  %22 = landingpad { ptr, i32 }
          cleanup
  invoke void @__cxa_end_catch()
          to label %23 unwind label %24

23:                                               ; preds = %21, %15
  %.merged = phi { ptr, i32 } [ %.pn, %15 ], [ %22, %21 ]
  resume { ptr, i32 } %.merged

24:                                               ; preds = %21
  %25 = landingpad { ptr, i32 }
          catch ptr null
  %26 = extractvalue { ptr, i32 } %25, 0
  tail call void @__clang_call_terminate(ptr %26) #19
  unreachable
}